target datalayout = "e-m:e-p270:32:32-p271:32:32-p272:64:64-i64:64-i128:128-f80:128-n8:16:32:64-S128"
target triple = "x86_64-pc-linux-gnu"

%struct.iseq_link_anchor = type { %struct.iseq_link_element, ptr }
%struct.iseq_link_element = type { i32, ptr, ptr }
%struct.rb_iseq_struct = type { i64, i64, ptr, %union.anon.15 }
%union.anon.15 = type { %struct.anon.16 }
%struct.anon.16 = type { i64, i32 }
%struct.rb_iseq_constant_body = type { i32, i32, ptr, %struct.anon.18, %struct.rb_iseq_location_struct, %struct.iseq_insn_info, ptr, ptr, ptr, ptr, ptr, ptr, %struct.anon.19, i32, i32, i32, i32, i32, i32, i32, i32, i8, %union.anon.20, ptr, ptr, ptr, i64, ptr, i64, ptr, i64 }
%struct.anon.18 = type { %struct.anon, i32, i32, i32, i32, i32, i32, i32, ptr, ptr }
%struct.anon = type { i16, [2 x i8] }
%struct.rb_iseq_location_struct = type { i64, i64, i64, i32, i32, %struct.rb_code_location_struct }
%struct.rb_code_location_struct = type { %struct.rb_code_position_struct, %struct.rb_code_position_struct }
%struct.rb_code_position_struct = type { i32, i32 }
%struct.iseq_insn_info = type { ptr, ptr, i32, ptr }
%struct.anon.19 = type { i64, i64, i64, i64, ptr }
%union.anon.20 = type { ptr }
%struct.RNode = type { i64, %struct.rb_code_location_struct, i32 }

@.str.34 = private unnamed_addr constant [4 x i8] c"add\00", align 1

; Function Attrs: nounwind sspstrong uwtable
define internal void @verify_list(ptr noundef %0, ptr noundef %1) #0 {
  %3 = alloca ptr, align 8
  %4 = alloca ptr, align 8
  store ptr %0, ptr %3, align 8, !tbaa !91
  store ptr %1, ptr %4, align 8, !tbaa !37
  ret void
}

; Function Attrs: nounwind sspstrong uwtable
define internal void @ADD_ELEM(ptr noundef %0, ptr noundef %1) #0 {
  %3 = alloca ptr, align 8
  %4 = alloca ptr, align 8
  store ptr %0, ptr %3, align 8, !tbaa !37
  store ptr %1, ptr %4, align 8, !tbaa !39
  %5 = load ptr, ptr %3, align 8, !tbaa !37
  %6 = getelementptr inbounds nuw %struct.iseq_link_anchor, ptr %5, i32 0, i32 1
  %7 = load ptr, ptr %6, align 8, !tbaa !20
  %8 = load ptr, ptr %4, align 8, !tbaa !39
  %9 = getelementptr inbounds nuw %struct.iseq_link_element, ptr %8, i32 0, i32 2
  store ptr %7, ptr %9, align 8, !tbaa !40
  %10 = load ptr, ptr %4, align 8, !tbaa !39
  %11 = load ptr, ptr %3, align 8, !tbaa !37
  %12 = getelementptr inbounds nuw %struct.iseq_link_anchor, ptr %11, i32 0, i32 1
  %13 = load ptr, ptr %12, align 8, !tbaa !20
  %14 = getelementptr inbounds nuw %struct.iseq_link_element, ptr %13, i32 0, i32 1
  store ptr %10, ptr %14, align 8, !tbaa !22
  %15 = load ptr, ptr %4, align 8, !tbaa !39
  %16 = load ptr, ptr %3, align 8, !tbaa !37
  %17 = getelementptr inbounds nuw %struct.iseq_link_anchor, ptr %16, i32 0, i32 1
  store ptr %15, ptr %17, align 8, !tbaa !20
  %18 = load ptr, ptr %3, align 8, !tbaa !37
  call void @verify_list(ptr noundef @.str.34, ptr noundef %18)
  ret void
}

; Function Attrs: inlinehint nounwind sspstrong uwtable
define internal i32 @nd_line(ptr noundef %0) #3 {
  %2 = alloca i32, align 4
  %3 = alloca ptr, align 8
  %4 = alloca i64, align 8
  store ptr %0, ptr %3, align 8, !tbaa !73
  %5 = load ptr, ptr %3, align 8, !tbaa !73
  %6 = icmp ne ptr %5, null
  br i1 %6, label %8, label %7

7:                                                ; preds = %1
  store i32 -1, ptr %2, align 4
  br label %15

8:                                                ; preds = %1
  call void @llvm.lifetime.start.p0(i64 8, ptr %4) #31
  %9 = load ptr, ptr %3, align 8, !tbaa !73
  %10 = getelementptr inbounds nuw %struct.RNode, ptr %9, i32 0, i32 0
  %11 = load i64, ptr %10, align 8, !tbaa !104
  store i64 %11, ptr %4, align 8, !tbaa !7
  %12 = load i64, ptr %4, align 8, !tbaa !7
  %13 = ashr i64 %12, 15
  %14 = trunc i64 %13 to i32
  store i32 %14, ptr %2, align 4
  call void @llvm.lifetime.end.p0(i64 8, ptr %4) #31
  br label %15

15:                                               ; preds = %8, %7
  %16 = load i32, ptr %2, align 4
  ret i32 %16
}

; Function Attrs: nounwind sspstrong uwtable
define internal i32 @compile_errinfo(ptr noundef %0, ptr noundef %1, ptr noundef %2, i32 noundef %3) #0 {
  %5 = alloca ptr, align 8
  %6 = alloca ptr, align 8
  %7 = alloca ptr, align 8
  %8 = alloca i32, align 4
  %9 = alloca ptr, align 8
  %10 = alloca i32, align 4
  store ptr %0, ptr %5, align 8, !tbaa !11
  store ptr %1, ptr %6, align 8, !tbaa !37
  store ptr %2, ptr %7, align 8, !tbaa !73
  store i32 %3, ptr %8, align 4, !tbaa !41
  %11 = load i32, ptr %8, align 4, !tbaa !41
  %12 = icmp ne i32 %11, 0
  br i1 %12, label %64, label %13

13:                                               ; preds = %4
  %14 = load ptr, ptr %5, align 8, !tbaa !11
  %15 = getelementptr inbounds nuw %struct.rb_iseq_struct, ptr %14, i32 0, i32 2
  %16 = load ptr, ptr %15, align 8, !tbaa !52
  %17 = getelementptr inbounds nuw %struct.rb_iseq_constant_body, ptr %16, i32 0, i32 0
  %18 = load i32, ptr %17, align 8, !tbaa !80
  %19 = icmp eq i32 %18, 4
  br i1 %19, label %20, label %24

20:                                               ; preds = %13
  %21 = load ptr, ptr %5, align 8, !tbaa !11
  %22 = load ptr, ptr %6, align 8, !tbaa !37
  %23 = load ptr, ptr %7, align 8, !tbaa !73
  call void @iseq_add_getlocal(ptr noundef %21, ptr noundef %22, ptr noundef %23, i32 noundef 1, i32 noundef 0)
  br label %63

24:                                               ; preds = %13
  call void @llvm.lifetime.start.p0(i64 8, ptr %9) #31
  %25 = load ptr, ptr %5, align 8, !tbaa !11
  store ptr %25, ptr %9, align 8, !tbaa !11
  call void @llvm.lifetime.start.p0(i64 4, ptr %10) #31
  store i32 0, ptr %10, align 4, !tbaa !41
  br label %26

26:                                               ; preds = %37, %24
  %27 = load ptr, ptr %9, align 8, !tbaa !11
  %28 = icmp ne ptr %27, null
  br i1 %28, label %29, label %45

29:                                               ; preds = %26
  %30 = load ptr, ptr %9, align 8, !tbaa !11
  %31 = getelementptr inbounds nuw %struct.rb_iseq_struct, ptr %30, i32 0, i32 2
  %32 = load ptr, ptr %31, align 8, !tbaa !52
  %33 = getelementptr inbounds nuw %struct.rb_iseq_constant_body, ptr %32, i32 0, i32 0
  %34 = load i32, ptr %33, align 8, !tbaa !80
  %35 = icmp eq i32 %34, 4
  br i1 %35, label %36, label %37

36:                                               ; preds = %29
  br label %45

37:                                               ; preds = %29
  %38 = load ptr, ptr %9, align 8, !tbaa !11
  %39 = getelementptr inbounds nuw %struct.rb_iseq_struct, ptr %38, i32 0, i32 2
  %40 = load ptr, ptr %39, align 8, !tbaa !52
  %41 = getelementptr inbounds nuw %struct.rb_iseq_constant_body, ptr %40, i32 0, i32 8
  %42 = load ptr, ptr %41, align 8, !tbaa !216
  store ptr %42, ptr %9, align 8, !tbaa !11
  %43 = load i32, ptr %10, align 4, !tbaa !41
  %44 = add i32 %43, 1
  store i32 %44, ptr %10, align 4, !tbaa !41
  br label %26, !llvm.loop !1177

45:                                               ; preds = %36, %26
  %46 = load ptr, ptr %9, align 8, !tbaa !11
  %47 = icmp ne ptr %46, null
  br i1 %47, label %48, label %53

48:                                               ; preds = %45
  %49 = load ptr, ptr %5, align 8, !tbaa !11
  %50 = load ptr, ptr %6, align 8, !tbaa !37
  %51 = load ptr, ptr %7, align 8, !tbaa !73
  %52 = load i32, ptr %10, align 4, !tbaa !41
  call void @iseq_add_getlocal(ptr noundef %49, ptr noundef %50, ptr noundef %51, i32 noundef 1, i32 noundef %52)
  br label %62

53:                                               ; preds = %45
  %54 = load ptr, ptr %6, align 8, !tbaa !37
  %55 = load ptr, ptr %5, align 8, !tbaa !11
  %56 = load ptr, ptr %7, align 8, !tbaa !73
  %57 = call i32 @nd_line(ptr noundef %56)
  %58 = load ptr, ptr %7, align 8, !tbaa !73
  %59 = getelementptr inbounds nuw %struct.RNode, ptr %58, i32 0, i32 2
  %60 = load i32, ptr %59, align 8, !tbaa !93
  %61 = call ptr (ptr, i32, i32, i32, i32, ...) @new_insn_body(ptr noundef %55, i32 noundef %57, i32 noundef %60, i32 noundef 17, i32 noundef 0)
  call void @ADD_ELEM(ptr noundef %54, ptr noundef %61)
  br label %62

62:                                               ; preds = %53, %48
  call void @llvm.lifetime.end.p0(i64 4, ptr %10) #31
  call void @llvm.lifetime.end.p0(i64 8, ptr %9) #31
  br label %63

63:                                               ; preds = %62, %20
  br label %64

64:                                               ; preds = %63, %4
  ret i32 1
}