; Function Attrs: nounwind sspstrong uwtable
define internal fastcc void @compile_errinfo(ptr noundef %0, ptr noundef captures(none) %1, ptr noundef nonnull captures(address_is_null) %2, i32 noundef %3) unnamed_addr #1 {
  %.not = icmp eq i32 %3, 0
  br i1 %.not, label %5, label %55

5:                                                ; preds = %4
  %6 = getelementptr inbounds nuw i8, ptr %0, i64 16
  %7 = load ptr, ptr %6, align 8, !tbaa !45
  %8 = load i32, ptr %7, align 8, !tbaa !46
  %9 = icmp eq i32 %8, 4
  br i1 %9, label %10, label %.lr.ph

10:                                               ; preds = %5
  %11 = getelementptr inbounds nuw i8, ptr %7, i64 168
  %12 = load ptr, ptr %11, align 8, !tbaa !257
  %13 = icmp eq ptr %12, %0
  br i1 %13, label %14, label %25

14:                                               ; preds = %10
  %15 = getelementptr inbounds nuw i8, ptr %7, i64 16
  %16 = load i16, ptr %15, align 8
  %17 = and i16 %16, 64
  %.not12.i.i = icmp eq i16 %17, 0
  br i1 %.not12.i.i, label %25, label %18

18:                                               ; preds = %14
  %19 = getelementptr inbounds nuw i8, ptr %7, i64 232
  %20 = load i32, ptr %19, align 8, !tbaa !168
  %21 = getelementptr inbounds nuw i8, ptr %7, i64 44
  %22 = load i32, ptr %21, align 4, !tbaa !222
  %23 = sub i32 %20, %22
  %24 = icmp eq i32 %23, 1
  br i1 %24, label %iseq_add_getlocal.exit, label %25

25:                                               ; preds = %18, %14, %10
  br label %iseq_add_getlocal.exit

iseq_add_getlocal.exit:                           ; preds = %18, %25
  %.sink27 = phi i32 [ 1, %25 ], [ 3, %18 ]
  %26 = load i64, ptr %2, align 8, !tbaa !169
  %27 = lshr i64 %26, 15
  %28 = trunc i64 %27 to i32
  %29 = getelementptr inbounds nuw i8, ptr %2, i64 24
  %30 = load i32, ptr %29, align 8, !tbaa !259
  %31 = tail call ptr (ptr, i32, i32, i32, i32, ...) @new_insn_body(ptr noundef nonnull %0, i32 noundef %28, i32 noundef %30, i32 noundef %.sink27, i32 noundef 2, i64 noundef 7, i64 noundef 1)
  %32 = getelementptr inbounds nuw i8, ptr %1, i64 24
  %33 = load ptr, ptr %32, align 8, !tbaa !7
  %34 = getelementptr inbounds nuw i8, ptr %31, i64 16
  store ptr %33, ptr %34, align 8, !tbaa !35
  %35 = getelementptr inbounds nuw i8, ptr %33, i64 8
  store ptr %31, ptr %35, align 8, !tbaa !36
  store ptr %31, ptr %32, align 8, !tbaa !7
  br label %55

.lr.ph:                                           ; preds = %5, %40
  %.023 = phi i32 [ %43, %40 ], [ 0, %5 ]
  %.01822 = phi ptr [ %42, %40 ], [ %0, %5 ]
  %36 = getelementptr inbounds nuw i8, ptr %.01822, i64 16
  %37 = load ptr, ptr %36, align 8, !tbaa !45
  %38 = load i32, ptr %37, align 8, !tbaa !46
  %39 = icmp eq i32 %38, 4
  br i1 %39, label %44, label %40

40:                                               ; preds = %.lr.ph
  %41 = getelementptr inbounds nuw i8, ptr %37, i64 160
  %42 = load ptr, ptr %41, align 8, !tbaa !164
  %43 = add i32 %.023, 1
  %.not19 = icmp eq ptr %42, null
  br i1 %.not19, label %.critedge, label %.lr.ph, !llvm.loop !1022

44:                                               ; preds = %.lr.ph
  tail call fastcc void @iseq_add_getlocal(ptr noundef nonnull %0, ptr noundef %1, ptr noundef nonnull %2, i32 noundef 1, i32 noundef %.023)
  br label %55

.critedge:                                        ; preds = %40
  %45 = load i64, ptr %2, align 8, !tbaa !169
  %46 = lshr i64 %45, 15
  %47 = trunc i64 %46 to i32
  %48 = getelementptr inbounds nuw i8, ptr %2, i64 24
  %49 = load i32, ptr %48, align 8, !tbaa !259
  %50 = tail call fastcc noundef ptr @new_insn_core(ptr noundef %0, i32 noundef %47, i32 noundef %49, i32 noundef 17, i32 noundef 0, ptr noundef null)
  %51 = getelementptr inbounds nuw i8, ptr %1, i64 24
  %52 = load ptr, ptr %51, align 8, !tbaa !7
  %53 = getelementptr inbounds nuw i8, ptr %50, i64 16
  store ptr %52, ptr %53, align 8, !tbaa !35
  %54 = getelementptr inbounds nuw i8, ptr %52, i64 8
  store ptr %50, ptr %54, align 8, !tbaa !36
  store ptr %50, ptr %51, align 8, !tbaa !7
  br label %55

55:                                               ; preds = %44, %.critedge, %iseq_add_getlocal.exit, %4
  ret void
}